target datalayout = "e-m:e-p270:32:32-p271:32:32-p272:64:64-i64:64-i128:128-f80:128-n8:16:32:64-S128"
target triple = "x86_64-pc-linux-gnu"

%struct.lua_State = type { %struct.GCRef, i8, i8, i8, i8, %struct.MRef, %struct.GCRef, ptr, ptr, %struct.MRef, %struct.MRef, %struct.GCRef, %struct.GCRef, ptr, i32 }
%struct.MRef = type { i64 }
%struct.GCRef = type { i64 }
%union.TValue = type { i64 }
%struct.GG_State = type { %struct.lua_State, %struct.global_State, %struct.jit_State, [64 x i16], [243 x ptr], [57 x i32] }
%struct.global_State = type { ptr, ptr, %struct.GCState, %struct.GCstr, i8, i8, i8, i8, %struct.StrInternState, i32, %struct.GCRef, %struct.SBuf, %union.TValue, %union.TValue, %struct.Node, %union.TValue, %struct.GCupval, i32, i32, ptr, ptr, ptr, i32, i32, %struct.GCRef, %struct.MRef, %struct.MRef, %struct.PRNGState, [39 x %struct.GCRef] }
%struct.GCState = type { i64, i64, i8, i8, i8, i8, i32, %struct.GCRef, %struct.MRef, %struct.GCRef, %struct.GCRef, %struct.GCRef, %struct.GCRef, i64, i64, i32, i32, %struct.MRef }
%struct.GCstr = type { %struct.GCRef, i8, i8, i8, i8, i32, i32, i32 }
%struct.StrInternState = type { ptr, i32, i32, i32, i8, i8, i8, i8, i64 }
%struct.SBuf = type { ptr, ptr, ptr, %struct.MRef }
%struct.Node = type { %union.TValue, %union.TValue, %struct.MRef }
%struct.GCupval = type { %struct.GCRef, i8, i8, i8, i8, %union.anon, %struct.MRef, i32 }
%union.anon = type { %struct.anon.1 }
%struct.anon.1 = type { %struct.GCRef, %struct.GCRef }
%struct.PRNGState = type { [4 x i64] }
%struct.jit_State = type { %struct.GCtrace, ptr, ptr, ptr, ptr, ptr, ptr, i32, i32, i32, i8, i8, %struct.IRType1, i8, %struct.FoldState, ptr, i32, i32, i32, i32, i32, i32, i32, [1 x i32], [5 x %union.TValue], [3 x %union.TValue], ptr, i32, i32, i32, i32, ptr, ptr, i32, i32, i8, ptr, i32, i32, i16, [101 x i16], [258 x i32], [15 x i32], [16 x ptr], [64 x %struct.HotPenalty], i32, [16 x %struct.BPropEntry], i32, %struct.ScEvEntry, ptr, i32, i32, i32, ptr, i32, i32, ptr, ptr, ptr, i64, i64, %union.TValue, ptr, i32, i32 }
%struct.GCtrace = type { %struct.GCRef, i8, i8, i16, i32, i32, %struct.GCRef, ptr, i32, i32, ptr, ptr, %struct.GCRef, %struct.MRef, i32, i32, ptr, i32, i16, i16, i16, i16, i16, i16, i16, i8, i8, i8, i8 }
%struct.IRType1 = type { i8 }
%struct.FoldState = type { %union.IRIns, [2 x %union.IRIns], [2 x %union.IRIns] }
%union.IRIns = type { %struct.GCRef }
%struct.HotPenalty = type { %struct.MRef, i16, i16 }
%struct.BPropEntry = type { i16, i16, i32 }
%struct.ScEvEntry = type { %struct.MRef, i16, i16, i16, i16, %struct.IRType1, i8 }
%struct.GCtab = type { %struct.GCRef, i8, i8, i8, i8, %struct.MRef, %struct.GCRef, %struct.GCRef, %struct.MRef, i32, i32, %struct.MRef }
%struct.SnapShot = type { i32, i16, i16, i8, i8, i8, i8 }

; Function Attrs: alwaysinline nounwind uwtable
define internal void @setintV(ptr noundef %0, i32 noundef %1) #5 {
  %3 = alloca ptr, align 8
  %4 = alloca i32, align 4
  store ptr %0, ptr %3, align 8, !tbaa !56
  store i32 %1, ptr %4, align 4, !tbaa !35
  %5 = load i32, ptr %4, align 4, !tbaa !35
  %6 = sitofp i32 %5 to double
  %7 = load ptr, ptr %3, align 8, !tbaa !56
  store double %6, ptr %7, align 8, !tbaa !37
  ret void
}

; Function Attrs: nounwind uwtable
define internal ptr @jit_checktrace(ptr noundef %0) #0 {
  %2 = alloca ptr, align 8
  %3 = alloca ptr, align 8
  %4 = alloca i32, align 4
  %5 = alloca ptr, align 8
  %6 = alloca i32, align 4
  store ptr %0, ptr %3, align 8, !tbaa !4
  call void @llvm.lifetime.start.p0(i64 4, ptr %4) #9
  %7 = load ptr, ptr %3, align 8, !tbaa !4
  %8 = call i32 @lj_lib_checkint(ptr noundef %7, i32 noundef 1)
  store i32 %8, ptr %4, align 4, !tbaa !35
  call void @llvm.lifetime.start.p0(i64 8, ptr %5) #9
  %9 = load ptr, ptr %3, align 8, !tbaa !4
  %10 = getelementptr inbounds nuw %struct.lua_State, ptr %9, i32 0, i32 5
  %11 = getelementptr inbounds nuw %struct.MRef, ptr %10, i32 0, i32 0
  %12 = load i64, ptr %11, align 8, !tbaa !17
  %13 = inttoptr i64 %12 to ptr
  %14 = getelementptr inbounds i8, ptr %13, i64 -96
  %15 = getelementptr inbounds nuw %struct.GG_State, ptr %14, i32 0, i32 2
  store ptr %15, ptr %5, align 8, !tbaa !18
  %16 = load i32, ptr %4, align 4, !tbaa !35
  %17 = icmp ugt i32 %16, 0
  br i1 %17, label %18, label %34

18:                                               ; preds = %1
  %19 = load i32, ptr %4, align 4, !tbaa !35
  %20 = load ptr, ptr %5, align 8, !tbaa !18
  %21 = getelementptr inbounds nuw %struct.jit_State, ptr %20, i32 0, i32 38
  %22 = load i32, ptr %21, align 4, !tbaa !114
  %23 = icmp ult i32 %19, %22
  br i1 %23, label %24, label %34

24:                                               ; preds = %18
  %25 = load ptr, ptr %5, align 8, !tbaa !18
  %26 = getelementptr inbounds nuw %struct.jit_State, ptr %25, i32 0, i32 36
  %27 = load ptr, ptr %26, align 8, !tbaa !115
  %28 = load i32, ptr %4, align 4, !tbaa !35
  %29 = zext i32 %28 to i64
  %30 = getelementptr inbounds nuw %struct.GCRef, ptr %27, i64 %29
  %31 = getelementptr inbounds nuw %struct.GCRef, ptr %30, i32 0, i32 0
  %32 = load i64, ptr %31, align 8, !tbaa !84
  %33 = inttoptr i64 %32 to ptr
  store ptr %33, ptr %2, align 8
  store i32 1, ptr %6, align 4
  br label %35

34:                                               ; preds = %18, %1
  store ptr null, ptr %2, align 8
  store i32 1, ptr %6, align 4
  br label %35

35:                                               ; preds = %34, %24
  call void @llvm.lifetime.end.p0(i64 8, ptr %5) #9
  call void @llvm.lifetime.end.p0(i64 4, ptr %4) #9
  %36 = load ptr, ptr %2, align 8
  ret ptr %36
}

; Function Attrs: nounwind uwtable
define internal i32 @lj_cf_jit_util_tracesnap(ptr noundef %0) #0 {
  %2 = alloca i32, align 4
  %3 = alloca ptr, align 8
  %4 = alloca ptr, align 8
  %5 = alloca i32, align 4
  %6 = alloca ptr, align 8
  %7 = alloca ptr, align 8
  %8 = alloca i32, align 4
  %9 = alloca i32, align 4
  %10 = alloca ptr, align 8
  %11 = alloca i32, align 4
  store ptr %0, ptr %3, align 8, !tbaa !4
  call void @llvm.lifetime.start.p0(i64 8, ptr %4) #9
  %12 = load ptr, ptr %3, align 8, !tbaa !4
  %13 = call ptr @jit_checktrace(ptr noundef %12)
  store ptr %13, ptr %4, align 8, !tbaa !85
  call void @llvm.lifetime.start.p0(i64 4, ptr %5) #9
  %14 = load ptr, ptr %3, align 8, !tbaa !4
  %15 = call i32 @lj_lib_checkint(ptr noundef %14, i32 noundef 2)
  store i32 %15, ptr %5, align 4, !tbaa !35
  %16 = load ptr, ptr %4, align 8, !tbaa !85
  %17 = icmp ne ptr %16, null
  br i1 %17, label %18, label %160

18:                                               ; preds = %1
  %19 = load i32, ptr %5, align 4, !tbaa !35
  %20 = load ptr, ptr %4, align 8, !tbaa !85
  %21 = getelementptr inbounds nuw %struct.GCtrace, ptr %20, i32 0, i32 3
  %22 = load i16, ptr %21, align 2, !tbaa !89
  %23 = zext i16 %22 to i32
  %24 = icmp ult i32 %19, %23
  br i1 %24, label %25, label %160

25:                                               ; preds = %18
  call void @llvm.lifetime.start.p0(i64 8, ptr %6) #9
  %26 = load ptr, ptr %4, align 8, !tbaa !85
  %27 = getelementptr inbounds nuw %struct.GCtrace, ptr %26, i32 0, i32 10
  %28 = load ptr, ptr %27, align 8, !tbaa !95
  %29 = load i32, ptr %5, align 4, !tbaa !35
  %30 = zext i32 %29 to i64
  %31 = getelementptr inbounds nuw %struct.SnapShot, ptr %28, i64 %30
  store ptr %31, ptr %6, align 8, !tbaa !96
  call void @llvm.lifetime.start.p0(i64 8, ptr %7) #9
  %32 = load ptr, ptr %4, align 8, !tbaa !85
  %33 = getelementptr inbounds nuw %struct.GCtrace, ptr %32, i32 0, i32 11
  %34 = load ptr, ptr %33, align 8, !tbaa !97
  %35 = load ptr, ptr %6, align 8, !tbaa !96
  %36 = getelementptr inbounds nuw %struct.SnapShot, ptr %35, i32 0, i32 0
  %37 = load i32, ptr %36, align 4, !tbaa !98
  %38 = zext i32 %37 to i64
  %39 = getelementptr inbounds nuw i32, ptr %34, i64 %38
  store ptr %39, ptr %7, align 8, !tbaa !100
  call void @llvm.lifetime.start.p0(i64 4, ptr %8) #9
  call void @llvm.lifetime.start.p0(i64 4, ptr %9) #9
  %40 = load ptr, ptr %6, align 8, !tbaa !96
  %41 = getelementptr inbounds nuw %struct.SnapShot, ptr %40, i32 0, i32 5
  %42 = load i8, ptr %41, align 2, !tbaa !101
  %43 = zext i8 %42 to i32
  store i32 %43, ptr %9, align 4, !tbaa !35
  call void @llvm.lifetime.start.p0(i64 8, ptr %10) #9
  %44 = load ptr, ptr %3, align 8, !tbaa !4
  %45 = load i32, ptr %9, align 4, !tbaa !35
  %46 = add i32 %45, 2
  call void @lua_createtable(ptr noundef %44, i32 noundef %46, i32 noundef 0)
  %47 = load ptr, ptr %3, align 8, !tbaa !4
  %48 = getelementptr inbounds nuw %struct.lua_State, ptr %47, i32 0, i32 8
  %49 = load ptr, ptr %48, align 8, !tbaa !16
  %50 = getelementptr inbounds %union.TValue, ptr %49, i64 -1
  %51 = getelementptr inbounds nuw %struct.GCRef, ptr %50, i32 0, i32 0
  %52 = load i64, ptr %51, align 8, !tbaa !37
  %53 = and i64 %52, 140737488355327
  %54 = inttoptr i64 %53 to ptr
  store ptr %54, ptr %10, align 8, !tbaa !59
  %55 = load ptr, ptr %10, align 8, !tbaa !59
  %56 = getelementptr inbounds nuw %struct.GCtab, ptr %55, i32 0, i32 9
  %57 = load i32, ptr %56, align 8, !tbaa !102
  %58 = icmp ult i32 0, %57
  br i1 %58, label %59, label %66

59:                                               ; preds = %25
  %60 = load ptr, ptr %10, align 8, !tbaa !59
  %61 = getelementptr inbounds nuw %struct.GCtab, ptr %60, i32 0, i32 5
  %62 = getelementptr inbounds nuw %struct.MRef, ptr %61, i32 0, i32 0
  %63 = load i64, ptr %62, align 8, !tbaa !103
  %64 = inttoptr i64 %63 to ptr
  %65 = getelementptr inbounds %union.TValue, ptr %64, i64 0
  br label %70

66:                                               ; preds = %25
  %67 = load ptr, ptr %3, align 8, !tbaa !4
  %68 = load ptr, ptr %10, align 8, !tbaa !59
  %69 = call ptr @lj_tab_setinth(ptr noundef %67, ptr noundef %68, i32 noundef 0)
  br label %70

70:                                               ; preds = %66, %59
  %71 = phi ptr [ %65, %59 ], [ %69, %66 ]
  %72 = load ptr, ptr %6, align 8, !tbaa !96
  %73 = getelementptr inbounds nuw %struct.SnapShot, ptr %72, i32 0, i32 1
  %74 = load i16, ptr %73, align 4, !tbaa !104
  %75 = zext i16 %74 to i32
  %76 = sub nsw i32 %75, 32768
  call void @setintV(ptr noundef %71, i32 noundef %76)
  %77 = load ptr, ptr %10, align 8, !tbaa !59
  %78 = getelementptr inbounds nuw %struct.GCtab, ptr %77, i32 0, i32 9
  %79 = load i32, ptr %78, align 8, !tbaa !102
  %80 = icmp ult i32 1, %79
  br i1 %80, label %81, label %88

81:                                               ; preds = %70
  %82 = load ptr, ptr %10, align 8, !tbaa !59
  %83 = getelementptr inbounds nuw %struct.GCtab, ptr %82, i32 0, i32 5
  %84 = getelementptr inbounds nuw %struct.MRef, ptr %83, i32 0, i32 0
  %85 = load i64, ptr %84, align 8, !tbaa !103
  %86 = inttoptr i64 %85 to ptr
  %87 = getelementptr inbounds %union.TValue, ptr %86, i64 1
  br label %92

88:                                               ; preds = %70
  %89 = load ptr, ptr %3, align 8, !tbaa !4
  %90 = load ptr, ptr %10, align 8, !tbaa !59
  %91 = call ptr @lj_tab_setinth(ptr noundef %89, ptr noundef %90, i32 noundef 1)
  br label %92

92:                                               ; preds = %88, %81
  %93 = phi ptr [ %87, %81 ], [ %91, %88 ]
  %94 = load ptr, ptr %6, align 8, !tbaa !96
  %95 = getelementptr inbounds nuw %struct.SnapShot, ptr %94, i32 0, i32 3
  %96 = load i8, ptr %95, align 4, !tbaa !105
  %97 = zext i8 %96 to i32
  call void @setintV(ptr noundef %93, i32 noundef %97)
  store i32 0, ptr %8, align 4, !tbaa !35
  br label %98

98:                                               ; preds = %132, %92
  %99 = load i32, ptr %8, align 4, !tbaa !35
  %100 = load i32, ptr %9, align 4, !tbaa !35
  %101 = icmp ult i32 %99, %100
  br i1 %101, label %102, label %135

102:                                              ; preds = %98
  %103 = load i32, ptr %8, align 4, !tbaa !35
  %104 = add i32 %103, 2
  %105 = load ptr, ptr %10, align 8, !tbaa !59
  %106 = getelementptr inbounds nuw %struct.GCtab, ptr %105, i32 0, i32 9
  %107 = load i32, ptr %106, align 8, !tbaa !102
  %108 = icmp ult i32 %104, %107
  br i1 %108, label %109, label %119

109:                                              ; preds = %102
  %110 = load ptr, ptr %10, align 8, !tbaa !59
  %111 = getelementptr inbounds nuw %struct.GCtab, ptr %110, i32 0, i32 5
  %112 = getelementptr inbounds nuw %struct.MRef, ptr %111, i32 0, i32 0
  %113 = load i64, ptr %112, align 8, !tbaa !103
  %114 = inttoptr i64 %113 to ptr
  %115 = load i32, ptr %8, align 4, !tbaa !35
  %116 = add i32 %115, 2
  %117 = sext i32 %116 to i64
  %118 = getelementptr inbounds %union.TValue, ptr %114, i64 %117
  br label %125

119:                                              ; preds = %102
  %120 = load ptr, ptr %3, align 8, !tbaa !4
  %121 = load ptr, ptr %10, align 8, !tbaa !59
  %122 = load i32, ptr %8, align 4, !tbaa !35
  %123 = add i32 %122, 2
  %124 = call ptr @lj_tab_setinth(ptr noundef %120, ptr noundef %121, i32 noundef %123)
  br label %125

125:                                              ; preds = %119, %109
  %126 = phi ptr [ %118, %109 ], [ %124, %119 ]
  %127 = load ptr, ptr %7, align 8, !tbaa !100
  %128 = load i32, ptr %8, align 4, !tbaa !35
  %129 = zext i32 %128 to i64
  %130 = getelementptr inbounds nuw i32, ptr %127, i64 %129
  %131 = load i32, ptr %130, align 4, !tbaa !35
  call void @setintV(ptr noundef %126, i32 noundef %131)
  br label %132

132:                                              ; preds = %125
  %133 = load i32, ptr %8, align 4, !tbaa !35
  %134 = add i32 %133, 1
  store i32 %134, ptr %8, align 4, !tbaa !35
  br label %98, !llvm.loop !106

135:                                              ; preds = %98
  %136 = load i32, ptr %9, align 4, !tbaa !35
  %137 = add i32 %136, 2
  %138 = load ptr, ptr %10, align 8, !tbaa !59
  %139 = getelementptr inbounds nuw %struct.GCtab, ptr %138, i32 0, i32 9
  %140 = load i32, ptr %139, align 8, !tbaa !102
  %141 = icmp ult i32 %137, %140
  br i1 %141, label %142, label %152

142:                                              ; preds = %135
  %143 = load ptr, ptr %10, align 8, !tbaa !59
  %144 = getelementptr inbounds nuw %struct.GCtab, ptr %143, i32 0, i32 5
  %145 = getelementptr inbounds nuw %struct.MRef, ptr %144, i32 0, i32 0
  %146 = load i64, ptr %145, align 8, !tbaa !103
  %147 = inttoptr i64 %146 to ptr
  %148 = load i32, ptr %9, align 4, !tbaa !35
  %149 = add i32 %148, 2
  %150 = sext i32 %149 to i64
  %151 = getelementptr inbounds %union.TValue, ptr %147, i64 %150
  br label %158

152:                                              ; preds = %135
  %153 = load ptr, ptr %3, align 8, !tbaa !4
  %154 = load ptr, ptr %10, align 8, !tbaa !59
  %155 = load i32, ptr %9, align 4, !tbaa !35
  %156 = add i32 %155, 2
  %157 = call ptr @lj_tab_setinth(ptr noundef %153, ptr noundef %154, i32 noundef %156)
  br label %158

158:                                              ; preds = %152, %142
  %159 = phi ptr [ %151, %142 ], [ %157, %152 ]
  call void @setintV(ptr noundef %159, i32 noundef -16777216)
  store i32 1, ptr %2, align 4
  store i32 1, ptr %11, align 4
  call void @llvm.lifetime.end.p0(i64 8, ptr %10) #9
  call void @llvm.lifetime.end.p0(i64 4, ptr %9) #9
  call void @llvm.lifetime.end.p0(i64 4, ptr %8) #9
  call void @llvm.lifetime.end.p0(i64 8, ptr %7) #9
  call void @llvm.lifetime.end.p0(i64 8, ptr %6) #9
  br label %161

160:                                              ; preds = %18, %1
  store i32 0, ptr %2, align 4
  store i32 1, ptr %11, align 4
  br label %161

161:                                              ; preds = %160, %158
  call void @llvm.lifetime.end.p0(i64 4, ptr %5) #9
  call void @llvm.lifetime.end.p0(i64 8, ptr %4) #9
  %162 = load i32, ptr %2, align 4
  ret i32 %162
}