; Function Attrs: nounwind uwtable
define internal range(i32 0, 2) i32 @lj_cf_jit_util_tracesnap(ptr noundef %0) #0 {
  %2 = tail call i32 @lj_lib_checkint(ptr noundef %0, i32 noundef 1) #8
  %3 = getelementptr inbounds nuw i8, ptr %0, i64 16
  %4 = load i64, ptr %3, align 8, !tbaa !4
  %5 = inttoptr i64 %4 to ptr
  %.not.i = icmp eq i32 %2, 0
  br i1 %.not.i, label %jit_checktrace.exit.thread, label %6

6:                                                ; preds = %1
  %7 = getelementptr inbounds nuw i8, ptr %5, i64 1132
  %8 = load i32, ptr %7, align 4, !tbaa !71
  %9 = icmp ult i32 %2, %8
  br i1 %9, label %jit_checktrace.exit, label %jit_checktrace.exit.thread

jit_checktrace.exit.thread:                       ; preds = %6, %1
  %10 = tail call i32 @lj_lib_checkint(ptr noundef nonnull %0, i32 noundef 2) #8
  br label %102

jit_checktrace.exit:                              ; preds = %6
  %11 = getelementptr inbounds nuw i8, ptr %5, i64 1120
  %12 = load ptr, ptr %11, align 8, !tbaa !72
  %13 = zext i32 %2 to i64
  %14 = getelementptr inbounds nuw %struct.GCRef, ptr %12, i64 %13
  %15 = load i64, ptr %14, align 8, !tbaa !70
  %16 = inttoptr i64 %15 to ptr
  %17 = tail call i32 @lj_lib_checkint(ptr noundef nonnull %0, i32 noundef 2) #8
  %.not = icmp eq i64 %15, 0
  br i1 %.not, label %102, label %18

18:                                               ; preds = %jit_checktrace.exit
  %19 = getelementptr inbounds nuw i8, ptr %16, i64 10
  %20 = load i16, ptr %19, align 2, !tbaa !76
  %21 = zext i16 %20 to i32
  %22 = icmp ult i32 %17, %21
  br i1 %22, label %23, label %102

23:                                               ; preds = %18
  %24 = getelementptr inbounds nuw i8, ptr %16, i64 48
  %25 = load ptr, ptr %24, align 8, !tbaa !82
  %26 = zext nneg i32 %17 to i64
  %27 = getelementptr inbounds nuw %struct.SnapShot, ptr %25, i64 %26
  %28 = getelementptr inbounds nuw i8, ptr %16, i64 56
  %29 = load ptr, ptr %28, align 8, !tbaa !83
  %30 = load i32, ptr %27, align 4, !tbaa !84
  %31 = zext i32 %30 to i64
  %32 = getelementptr inbounds nuw i32, ptr %29, i64 %31
  %33 = getelementptr inbounds nuw i8, ptr %27, i64 10
  %34 = load i8, ptr %33, align 2, !tbaa !86
  %35 = zext i8 %34 to i32
  %36 = add nuw nsw i32 %35, 2
  tail call void @lua_createtable(ptr noundef nonnull %0, i32 noundef %36, i32 noundef 0) #8
  %37 = getelementptr inbounds nuw i8, ptr %0, i64 40
  %38 = load ptr, ptr %37, align 8, !tbaa !32
  %39 = getelementptr inbounds i8, ptr %38, i64 -8
  %40 = load i64, ptr %39, align 8, !tbaa !34
  %41 = and i64 %40, 140737488355327
  %42 = inttoptr i64 %41 to ptr
  %43 = getelementptr inbounds nuw i8, ptr %42, i64 48
  %44 = load i32, ptr %43, align 8, !tbaa !87
  %.not48 = icmp eq i32 %44, 0
  br i1 %.not48, label %49, label %45

45:                                               ; preds = %23
  %46 = getelementptr inbounds nuw i8, ptr %42, i64 16
  %47 = load i64, ptr %46, align 8, !tbaa !88
  %48 = inttoptr i64 %47 to ptr
  br label %51

49:                                               ; preds = %23
  %50 = tail call ptr @lj_tab_setinth(ptr noundef nonnull %0, ptr noundef nonnull %42, i32 noundef 0) #8
  br label %51

51:                                               ; preds = %49, %45
  %52 = phi ptr [ %48, %45 ], [ %50, %49 ]
  %53 = getelementptr inbounds nuw i8, ptr %27, i64 4
  %54 = load i16, ptr %53, align 4, !tbaa !89
  %55 = zext i16 %54 to i32
  %56 = add nsw i32 %55, -32768
  %57 = sitofp i32 %56 to double
  store double %57, ptr %52, align 8, !tbaa !34
  %58 = load i32, ptr %43, align 8, !tbaa !87
  %59 = icmp ugt i32 %58, 1
  br i1 %59, label %60, label %65

60:                                               ; preds = %51
  %61 = getelementptr inbounds nuw i8, ptr %42, i64 16
  %62 = load i64, ptr %61, align 8, !tbaa !88
  %63 = inttoptr i64 %62 to ptr
  %64 = getelementptr inbounds nuw i8, ptr %63, i64 8
  br label %67

65:                                               ; preds = %51
  %66 = tail call ptr @lj_tab_setinth(ptr noundef nonnull %0, ptr noundef nonnull %42, i32 noundef 1) #8
  br label %67

67:                                               ; preds = %65, %60
  %68 = phi ptr [ %64, %60 ], [ %66, %65 ]
  %69 = getelementptr inbounds nuw i8, ptr %27, i64 8
  %70 = load i8, ptr %69, align 4, !tbaa !90
  %71 = uitofp i8 %70 to double
  store double %71, ptr %68, align 8, !tbaa !34
  %.not52 = icmp eq i8 %34, 0
  br i1 %.not52, label %._crit_edge, label %.lr.ph

.lr.ph:                                           ; preds = %67
  %72 = getelementptr inbounds nuw i8, ptr %42, i64 16
  %wide.trip.count = zext i8 %34 to i64
  br label %73

73:                                               ; preds = %.lr.ph, %85
  %indvars.iv = phi i64 [ 0, %.lr.ph ], [ %indvars.iv.next, %85 ]
  %74 = add nuw nsw i64 %indvars.iv, 2
  %75 = load i32, ptr %43, align 8, !tbaa !87
  %76 = zext i32 %75 to i64
  %77 = icmp samesign ult i64 %74, %76
  br i1 %77, label %78, label %82

78:                                               ; preds = %73
  %79 = load i64, ptr %72, align 8, !tbaa !88
  %80 = inttoptr i64 %79 to ptr
  %81 = getelementptr inbounds nuw %union.TValue, ptr %80, i64 %74
  br label %85

82:                                               ; preds = %73
  %83 = trunc nuw nsw i64 %74 to i32
  %84 = tail call ptr @lj_tab_setinth(ptr noundef nonnull %0, ptr noundef nonnull %42, i32 noundef %83) #8
  br label %85

85:                                               ; preds = %82, %78
  %86 = phi ptr [ %81, %78 ], [ %84, %82 ]
  %87 = getelementptr inbounds nuw i32, ptr %32, i64 %indvars.iv
  %88 = load i32, ptr %87, align 4, !tbaa !14
  %89 = sitofp i32 %88 to double
  store double %89, ptr %86, align 8, !tbaa !34
  %indvars.iv.next = add nuw nsw i64 %indvars.iv, 1
  %exitcond.not = icmp eq i64 %indvars.iv.next, %wide.trip.count
  br i1 %exitcond.not, label %._crit_edge, label %73, !llvm.loop !91

._crit_edge:                                      ; preds = %85, %67
  %90 = load i32, ptr %43, align 8, !tbaa !87
  %91 = icmp ult i32 %36, %90
  br i1 %91, label %92, label %98

92:                                               ; preds = %._crit_edge
  %93 = getelementptr inbounds nuw i8, ptr %42, i64 16
  %94 = load i64, ptr %93, align 8, !tbaa !88
  %95 = inttoptr i64 %94 to ptr
  %96 = zext nneg i32 %36 to i64
  %97 = getelementptr inbounds nuw %union.TValue, ptr %95, i64 %96
  br label %100

98:                                               ; preds = %._crit_edge
  %99 = tail call ptr @lj_tab_setinth(ptr noundef nonnull %0, ptr noundef nonnull %42, i32 noundef %36) #8
  br label %100

100:                                              ; preds = %98, %92
  %101 = phi ptr [ %97, %92 ], [ %99, %98 ]
  store double 0xC170000000000000, ptr %101, align 8, !tbaa !34
  br label %102

102:                                              ; preds = %jit_checktrace.exit.thread, %jit_checktrace.exit, %18, %100
  %.0 = phi i32 [ 1, %100 ], [ 0, %18 ], [ 0, %jit_checktrace.exit ], [ 0, %jit_checktrace.exit.thread ]
  ret i32 %.0
}